; Function Attrs: mustprogress uwtable
define void @_ZN5ImGui20PopColumnsBackgroundEv() local_unnamed_addr #3 {
  %1 = load ptr, ptr @GImGui, align 8, !tbaa !3
  %2 = getelementptr inbounds nuw i8, ptr %1, i64 5016
  %3 = load ptr, ptr %2, align 8, !tbaa !8
  %4 = getelementptr inbounds nuw i8, ptr %3, i64 448
  %5 = load ptr, ptr %4, align 8, !tbaa !615
  %6 = getelementptr inbounds nuw i8, ptr %5, i64 16
  %7 = load i32, ptr %6, align 8, !tbaa !620
  %8 = icmp eq i32 %7, 1
  br i1 %8, label %29, label %9

9:                                                ; preds = %0
  %10 = getelementptr inbounds nuw i8, ptr %5, i64 60
  %11 = load <4 x float>, ptr %10, align 4
  %.sroa.0.4.vec.insert.i.i = shufflevector <4 x float> %11, <4 x float> poison, <2 x i32> <i32 0, i32 1>
  %.sroa.3.12.vec.insert.i.i = shufflevector <4 x float> %11, <4 x float> poison, <2 x i32> <i32 2, i32 3>
  %12 = getelementptr inbounds nuw i8, ptr %3, i64 600
  tail call void @llvm.memcpy.p0.p0.i64(ptr noundef nonnull align 8 dereferenceable(16) %12, ptr noundef nonnull readonly align 4 dereferenceable(16) %10, i64 16, i1 false), !tbaa.struct !222
  %13 = getelementptr inbounds nuw i8, ptr %3, i64 704
  %14 = load ptr, ptr %13, align 8, !tbaa !437
  %15 = getelementptr inbounds nuw i8, ptr %14, i64 96
  store <2 x float> %.sroa.0.4.vec.insert.i.i, ptr %15, align 8
  %.sroa.5.0..sroa_idx.i = getelementptr inbounds nuw i8, ptr %14, i64 104
  store <2 x float> %.sroa.3.12.vec.insert.i.i, ptr %.sroa.5.0..sroa_idx.i, align 8
  %16 = load ptr, ptr %13, align 8, !tbaa !437
  %17 = getelementptr inbounds nuw i8, ptr %16, i64 152
  %18 = getelementptr inbounds nuw i8, ptr %16, i64 160
  %19 = load ptr, ptr %18, align 8, !tbaa !507
  %20 = load i32, ptr %17, align 8, !tbaa !508
  %21 = sext i32 %20 to i64
  %22 = getelementptr %struct.ImVec4, ptr %19, i64 %21
  %23 = getelementptr i8, ptr %22, i64 -16
  store <2 x float> %.sroa.0.4.vec.insert.i.i, ptr %23, align 4
  %.sroa.5.0..sroa_idx2.i = getelementptr i8, ptr %22, i64 -8
  store <2 x float> %.sroa.3.12.vec.insert.i.i, ptr %.sroa.5.0..sroa_idx2.i, align 4
  %24 = getelementptr inbounds nuw i8, ptr %5, i64 112
  %25 = load ptr, ptr %13, align 8, !tbaa !437
  %26 = getelementptr inbounds nuw i8, ptr %5, i64 12
  %27 = load i32, ptr %26, align 4, !tbaa !616
  %28 = add nsw i32 %27, 1
  tail call void @_ZN18ImDrawListSplitter17SetCurrentChannelEP10ImDrawListi(ptr noundef nonnull align 8 dereferenceable(24) %24, ptr noundef %25, i32 noundef %28)
  br label %29

29:                                               ; preds = %0, %9
  ret void
}